target datalayout = "e-m:e-p270:32:32-p271:32:32-p272:64:64-i64:64-i128:128-f80:128-n8:16:32:64-S128"
target triple = "x86_64-pc-linux-gnu"

%struct.lua_State = type { ptr, i8, i8, i8, i8, i16, %union.StkIdRel, ptr, ptr, %union.StkIdRel, %union.StkIdRel, ptr, %union.StkIdRel, ptr, ptr, ptr, %struct.CallInfo, ptr, i64, i32, i32, i32, i32, i32, %struct.anon.3 }
%union.StkIdRel = type { ptr }
%struct.CallInfo = type { %union.StkIdRel, %union.StkIdRel, ptr, ptr, %union.anon, %union.anon.2, i32 }
%union.anon = type { %struct.anon.1 }
%struct.anon.1 = type { ptr, i64, i64 }
%union.anon.2 = type { i32 }
%struct.anon.3 = type { i32, i32 }
%struct.TValue = type { %union.Value, i8 }
%union.Value = type { ptr }
%struct.TString = type { ptr, i8, i8, i8, i8, i32, %union.anon.4, ptr, ptr, ptr }
%union.anon.4 = type { i64 }
%union.StackValue = type { %struct.TValue }

@.str.2 = private unnamed_addr constant [38 x i8] c"cannot resume non-suspended coroutine\00", align 1
@.str.3 = private unnamed_addr constant [29 x i8] c"cannot resume dead coroutine\00", align 1
@.str.4 = private unnamed_addr constant [17 x i8] c"C stack overflow\00", align 1

; Function Attrs: nounwind uwtable
define internal ptr @findpcall(ptr noundef %0) #0 {
  %2 = alloca ptr, align 8
  %3 = alloca ptr, align 8
  %4 = alloca ptr, align 8
  %5 = alloca i32, align 4
  store ptr %0, ptr %3, align 8, !tbaa !4
  call void @llvm.lifetime.start.p0(i64 8, ptr %4) #11
  %6 = load ptr, ptr %3, align 8, !tbaa !4
  %7 = getelementptr inbounds nuw %struct.lua_State, ptr %6, i32 0, i32 8
  %8 = load ptr, ptr %7, align 8, !tbaa !53
  store ptr %8, ptr %4, align 8, !tbaa !54
  br label %9

9:                                                ; preds = %21, %1
  %10 = load ptr, ptr %4, align 8, !tbaa !54
  %11 = icmp ne ptr %10, null
  br i1 %11, label %12, label %25

12:                                               ; preds = %9
  %13 = load ptr, ptr %4, align 8, !tbaa !54
  %14 = getelementptr inbounds nuw %struct.CallInfo, ptr %13, i32 0, i32 6
  %15 = load i32, ptr %14, align 4, !tbaa !56
  %16 = and i32 %15, 2097152
  %17 = icmp ne i32 %16, 0
  br i1 %17, label %18, label %20

18:                                               ; preds = %12
  %19 = load ptr, ptr %4, align 8, !tbaa !54
  store ptr %19, ptr %2, align 8
  store i32 1, ptr %5, align 4
  br label %26

20:                                               ; preds = %12
  br label %21

21:                                               ; preds = %20
  %22 = load ptr, ptr %4, align 8, !tbaa !54
  %23 = getelementptr inbounds nuw %struct.CallInfo, ptr %22, i32 0, i32 2
  %24 = load ptr, ptr %23, align 8, !tbaa !55
  store ptr %24, ptr %4, align 8, !tbaa !54
  br label %9

25:                                               ; preds = %9
  store ptr null, ptr %2, align 8
  store i32 1, ptr %5, align 4
  br label %26

26:                                               ; preds = %25, %18
  call void @llvm.lifetime.end.p0(i64 8, ptr %4) #11
  %27 = load ptr, ptr %2, align 8
  ret ptr %27
}

; Function Attrs: nounwind uwtable
define internal i32 @precover(ptr noundef %0, i32 noundef %1) #0 {
  %3 = alloca ptr, align 8
  %4 = alloca i32, align 4
  %5 = alloca ptr, align 8
  store ptr %0, ptr %3, align 8, !tbaa !4
  store i32 %1, ptr %4, align 4, !tbaa !9
  call void @llvm.lifetime.start.p0(i64 8, ptr %5) #11
  br label %6

6:                                                ; preds = %15, %2
  %7 = load i32, ptr %4, align 4, !tbaa !9
  %8 = icmp sgt i32 %7, 1
  br i1 %8, label %9, label %13

9:                                                ; preds = %6
  %10 = load ptr, ptr %3, align 8, !tbaa !4
  %11 = call ptr @findpcall(ptr noundef %10)
  store ptr %11, ptr %5, align 8, !tbaa !54
  %12 = icmp ne ptr %11, null
  br label %13

13:                                               ; preds = %9, %6
  %14 = phi i1 [ false, %6 ], [ %12, %9 ]
  br i1 %14, label %15, label %30

15:                                               ; preds = %13
  %16 = load ptr, ptr %5, align 8, !tbaa !54
  %17 = load ptr, ptr %3, align 8, !tbaa !4
  %18 = getelementptr inbounds nuw %struct.lua_State, ptr %17, i32 0, i32 8
  store ptr %16, ptr %18, align 8, !tbaa !53
  %19 = load ptr, ptr %5, align 8, !tbaa !54
  %20 = getelementptr inbounds nuw %struct.CallInfo, ptr %19, i32 0, i32 6
  %21 = load i32, ptr %20, align 4, !tbaa !56
  %22 = and i32 %21, -28673
  %23 = load i32, ptr %4, align 4, !tbaa !9
  %24 = shl i32 %23, 12
  %25 = or i32 %22, %24
  %26 = load ptr, ptr %5, align 8, !tbaa !54
  %27 = getelementptr inbounds nuw %struct.CallInfo, ptr %26, i32 0, i32 6
  store i32 %25, ptr %27, align 4, !tbaa !56
  %28 = load ptr, ptr %3, align 8, !tbaa !4
  %29 = call i32 @luaD_rawrunprotected(ptr noundef %28, ptr noundef @unroll, ptr noundef null)
  store i32 %29, ptr %4, align 4, !tbaa !9
  br label %6

30:                                               ; preds = %13
  %31 = load i32, ptr %4, align 4, !tbaa !9
  call void @llvm.lifetime.end.p0(i64 8, ptr %5) #11
  ret i32 %31
}

; Function Attrs: nounwind uwtable
define internal i32 @resume_error(ptr noundef %0, ptr noundef %1, i32 noundef %2) #0 {
  %4 = alloca ptr, align 8
  %5 = alloca ptr, align 8
  %6 = alloca i32, align 4
  %7 = alloca ptr, align 8
  %8 = alloca ptr, align 8
  store ptr %0, ptr %4, align 8, !tbaa !4
  store ptr %1, ptr %5, align 8, !tbaa !86
  store i32 %2, ptr %6, align 4, !tbaa !9
  %9 = load i32, ptr %6, align 4, !tbaa !9
  %10 = load ptr, ptr %4, align 8, !tbaa !4
  %11 = getelementptr inbounds nuw %struct.lua_State, ptr %10, i32 0, i32 6
  %12 = load ptr, ptr %11, align 8, !tbaa !34
  %13 = sext i32 %9 to i64
  %14 = sub i64 0, %13
  %15 = getelementptr inbounds %union.StackValue, ptr %12, i64 %14
  store ptr %15, ptr %11, align 8, !tbaa !34
  call void @llvm.lifetime.start.p0(i64 8, ptr %7) #11
  %16 = load ptr, ptr %4, align 8, !tbaa !4
  %17 = getelementptr inbounds nuw %struct.lua_State, ptr %16, i32 0, i32 6
  %18 = load ptr, ptr %17, align 8, !tbaa !34
  store ptr %18, ptr %7, align 8, !tbaa !13
  call void @llvm.lifetime.start.p0(i64 8, ptr %8) #11
  %19 = load ptr, ptr %4, align 8, !tbaa !4
  %20 = load ptr, ptr %5, align 8, !tbaa !86
  %21 = call ptr @luaS_new(ptr noundef %19, ptr noundef %20)
  store ptr %21, ptr %8, align 8, !tbaa !33
  %22 = load ptr, ptr %8, align 8, !tbaa !33
  %23 = load ptr, ptr %7, align 8, !tbaa !13
  %24 = getelementptr inbounds nuw %struct.TValue, ptr %23, i32 0, i32 0
  store ptr %22, ptr %24, align 8, !tbaa !34
  %25 = load ptr, ptr %8, align 8, !tbaa !33
  %26 = getelementptr inbounds nuw %struct.TString, ptr %25, i32 0, i32 1
  %27 = load i8, ptr %26, align 8, !tbaa !35
  %28 = zext i8 %27 to i32
  %29 = or i32 %28, 64
  %30 = trunc i32 %29 to i8
  %31 = load ptr, ptr %7, align 8, !tbaa !13
  %32 = getelementptr inbounds nuw %struct.TValue, ptr %31, i32 0, i32 1
  store i8 %30, ptr %32, align 8, !tbaa !38
  call void @llvm.lifetime.end.p0(i64 8, ptr %8) #11
  call void @llvm.lifetime.end.p0(i64 8, ptr %7) #11
  %33 = load ptr, ptr %4, align 8, !tbaa !4
  %34 = getelementptr inbounds nuw %struct.lua_State, ptr %33, i32 0, i32 6
  %35 = load ptr, ptr %34, align 8, !tbaa !34
  %36 = getelementptr inbounds nuw %union.StackValue, ptr %35, i32 1
  store ptr %36, ptr %34, align 8, !tbaa !34
  ret i32 2
}

; Function Attrs: nounwind uwtable
define dso_local i32 @lua_resume(ptr noundef %0, ptr noundef %1, i32 noundef %2, ptr noundef %3) #0 {
  %5 = alloca i32, align 4
  %6 = alloca ptr, align 8
  %7 = alloca ptr, align 8
  %8 = alloca i32, align 4
  %9 = alloca ptr, align 8
  %10 = alloca i32, align 4
  %11 = alloca i32, align 4
  store ptr %0, ptr %6, align 8, !tbaa !4
  store ptr %1, ptr %7, align 8, !tbaa !4
  store i32 %2, ptr %8, align 4, !tbaa !9
  store ptr %3, ptr %9, align 8, !tbaa !85
  call void @llvm.lifetime.start.p0(i64 4, ptr %10) #11
  %12 = load ptr, ptr %6, align 8, !tbaa !4
  %13 = getelementptr inbounds nuw %struct.lua_State, ptr %12, i32 0, i32 3
  %14 = load i8, ptr %13, align 2, !tbaa !44
  %15 = zext i8 %14 to i32
  %16 = icmp eq i32 %15, 0
  br i1 %16, label %17, label %51

17:                                               ; preds = %4
  %18 = load ptr, ptr %6, align 8, !tbaa !4
  %19 = getelementptr inbounds nuw %struct.lua_State, ptr %18, i32 0, i32 8
  %20 = load ptr, ptr %19, align 8, !tbaa !53
  %21 = load ptr, ptr %6, align 8, !tbaa !4
  %22 = getelementptr inbounds nuw %struct.lua_State, ptr %21, i32 0, i32 16
  %23 = icmp ne ptr %20, %22
  br i1 %23, label %24, label %28

24:                                               ; preds = %17
  %25 = load ptr, ptr %6, align 8, !tbaa !4
  %26 = load i32, ptr %8, align 4, !tbaa !9
  %27 = call i32 @resume_error(ptr noundef %25, ptr noundef @.str.2, i32 noundef %26)
  store i32 %27, ptr %5, align 4
  store i32 1, ptr %11, align 4
  br label %149

28:                                               ; preds = %17
  %29 = load ptr, ptr %6, align 8, !tbaa !4
  %30 = getelementptr inbounds nuw %struct.lua_State, ptr %29, i32 0, i32 6
  %31 = load ptr, ptr %30, align 8, !tbaa !34
  %32 = load ptr, ptr %6, align 8, !tbaa !4
  %33 = getelementptr inbounds nuw %struct.lua_State, ptr %32, i32 0, i32 8
  %34 = load ptr, ptr %33, align 8, !tbaa !53
  %35 = getelementptr inbounds nuw %struct.CallInfo, ptr %34, i32 0, i32 0
  %36 = load ptr, ptr %35, align 8, !tbaa !34
  %37 = getelementptr inbounds %union.StackValue, ptr %36, i64 1
  %38 = ptrtoint ptr %31 to i64
  %39 = ptrtoint ptr %37 to i64
  %40 = sub i64 %38, %39
  %41 = sdiv exact i64 %40, 16
  %42 = load i32, ptr %8, align 4, !tbaa !9
  %43 = sext i32 %42 to i64
  %44 = icmp eq i64 %41, %43
  br i1 %44, label %45, label %49

45:                                               ; preds = %28
  %46 = load ptr, ptr %6, align 8, !tbaa !4
  %47 = load i32, ptr %8, align 4, !tbaa !9
  %48 = call i32 @resume_error(ptr noundef %46, ptr noundef @.str.3, i32 noundef %47)
  store i32 %48, ptr %5, align 4
  store i32 1, ptr %11, align 4
  br label %149

49:                                               ; preds = %28
  br label %50

50:                                               ; preds = %49
  br label %62

51:                                               ; preds = %4
  %52 = load ptr, ptr %6, align 8, !tbaa !4
  %53 = getelementptr inbounds nuw %struct.lua_State, ptr %52, i32 0, i32 3
  %54 = load i8, ptr %53, align 2, !tbaa !44
  %55 = zext i8 %54 to i32
  %56 = icmp ne i32 %55, 1
  br i1 %56, label %57, label %61

57:                                               ; preds = %51
  %58 = load ptr, ptr %6, align 8, !tbaa !4
  %59 = load i32, ptr %8, align 4, !tbaa !9
  %60 = call i32 @resume_error(ptr noundef %58, ptr noundef @.str.3, i32 noundef %59)
  store i32 %60, ptr %5, align 4
  store i32 1, ptr %11, align 4
  br label %149

61:                                               ; preds = %51
  br label %62

62:                                               ; preds = %61, %50
  %63 = load ptr, ptr %7, align 8, !tbaa !4
  %64 = icmp ne ptr %63, null
  br i1 %64, label %65, label %70

65:                                               ; preds = %62
  %66 = load ptr, ptr %7, align 8, !tbaa !4
  %67 = getelementptr inbounds nuw %struct.lua_State, ptr %66, i32 0, i32 19
  %68 = load i32, ptr %67, align 8, !tbaa !48
  %69 = and i32 %68, 65535
  br label %71

70:                                               ; preds = %62
  br label %71

71:                                               ; preds = %70, %65
  %72 = phi i32 [ %69, %65 ], [ 0, %70 ]
  %73 = load ptr, ptr %6, align 8, !tbaa !4
  %74 = getelementptr inbounds nuw %struct.lua_State, ptr %73, i32 0, i32 19
  store i32 %72, ptr %74, align 8, !tbaa !48
  %75 = load ptr, ptr %6, align 8, !tbaa !4
  %76 = getelementptr inbounds nuw %struct.lua_State, ptr %75, i32 0, i32 19
  %77 = load i32, ptr %76, align 8, !tbaa !48
  %78 = and i32 %77, 65535
  %79 = icmp uge i32 %78, 200
  br i1 %79, label %80, label %84

80:                                               ; preds = %71
  %81 = load ptr, ptr %6, align 8, !tbaa !4
  %82 = load i32, ptr %8, align 4, !tbaa !9
  %83 = call i32 @resume_error(ptr noundef %81, ptr noundef @.str.4, i32 noundef %82)
  store i32 %83, ptr %5, align 4
  store i32 1, ptr %11, align 4
  br label %149

84:                                               ; preds = %71
  %85 = load ptr, ptr %6, align 8, !tbaa !4
  %86 = getelementptr inbounds nuw %struct.lua_State, ptr %85, i32 0, i32 19
  %87 = load i32, ptr %86, align 8, !tbaa !48
  %88 = add i32 %87, 1
  store i32 %88, ptr %86, align 8, !tbaa !48
  %89 = load ptr, ptr %6, align 8, !tbaa !4
  %90 = call i32 @luaD_rawrunprotected(ptr noundef %89, ptr noundef @resume, ptr noundef %8)
  store i32 %90, ptr %10, align 4, !tbaa !9
  %91 = load ptr, ptr %6, align 8, !tbaa !4
  %92 = load i32, ptr %10, align 4, !tbaa !9
  %93 = call i32 @precover(ptr noundef %91, i32 noundef %92)
  store i32 %93, ptr %10, align 4, !tbaa !9
  %94 = load i32, ptr %10, align 4, !tbaa !9
  %95 = icmp sgt i32 %94, 1
  %96 = xor i1 %95, true
  %97 = zext i1 %96 to i32
  %98 = icmp ne i32 %97, 0
  %99 = zext i1 %98 to i32
  %100 = sext i32 %99 to i64
  %101 = call i64 @llvm.expect.i64(i64 %100, i64 1)
  %102 = icmp ne i64 %101, 0
  br i1 %102, label %103, label %104

103:                                              ; preds = %84
  br label %121

104:                                              ; preds = %84
  %105 = load i32, ptr %10, align 4, !tbaa !9
  %106 = trunc i32 %105 to i8
  %107 = load ptr, ptr %6, align 8, !tbaa !4
  %108 = getelementptr inbounds nuw %struct.lua_State, ptr %107, i32 0, i32 3
  store i8 %106, ptr %108, align 2, !tbaa !44
  %109 = load ptr, ptr %6, align 8, !tbaa !4
  %110 = load i32, ptr %10, align 4, !tbaa !9
  %111 = load ptr, ptr %6, align 8, !tbaa !4
  %112 = getelementptr inbounds nuw %struct.lua_State, ptr %111, i32 0, i32 6
  %113 = load ptr, ptr %112, align 8, !tbaa !34
  call void @luaD_seterrorobj(ptr noundef %109, i32 noundef %110, ptr noundef %113)
  %114 = load ptr, ptr %6, align 8, !tbaa !4
  %115 = getelementptr inbounds nuw %struct.lua_State, ptr %114, i32 0, i32 6
  %116 = load ptr, ptr %115, align 8, !tbaa !34
  %117 = load ptr, ptr %6, align 8, !tbaa !4
  %118 = getelementptr inbounds nuw %struct.lua_State, ptr %117, i32 0, i32 8
  %119 = load ptr, ptr %118, align 8, !tbaa !53
  %120 = getelementptr inbounds nuw %struct.CallInfo, ptr %119, i32 0, i32 1
  store ptr %116, ptr %120, align 8, !tbaa !34
  br label %121

121:                                              ; preds = %104, %103
  %122 = load i32, ptr %10, align 4, !tbaa !9
  %123 = icmp eq i32 %122, 1
  br i1 %123, label %124, label %130

124:                                              ; preds = %121
  %125 = load ptr, ptr %6, align 8, !tbaa !4
  %126 = getelementptr inbounds nuw %struct.lua_State, ptr %125, i32 0, i32 8
  %127 = load ptr, ptr %126, align 8, !tbaa !53
  %128 = getelementptr inbounds nuw %struct.CallInfo, ptr %127, i32 0, i32 5
  %129 = load i32, ptr %128, align 8, !tbaa !34
  br label %145

130:                                              ; preds = %121
  %131 = load ptr, ptr %6, align 8, !tbaa !4
  %132 = getelementptr inbounds nuw %struct.lua_State, ptr %131, i32 0, i32 6
  %133 = load ptr, ptr %132, align 8, !tbaa !34
  %134 = load ptr, ptr %6, align 8, !tbaa !4
  %135 = getelementptr inbounds nuw %struct.lua_State, ptr %134, i32 0, i32 8
  %136 = load ptr, ptr %135, align 8, !tbaa !53
  %137 = getelementptr inbounds nuw %struct.CallInfo, ptr %136, i32 0, i32 0
  %138 = load ptr, ptr %137, align 8, !tbaa !34
  %139 = getelementptr inbounds %union.StackValue, ptr %138, i64 1
  %140 = ptrtoint ptr %133 to i64
  %141 = ptrtoint ptr %139 to i64
  %142 = sub i64 %140, %141
  %143 = sdiv exact i64 %142, 16
  %144 = trunc i64 %143 to i32
  br label %145

145:                                              ; preds = %130, %124
  %146 = phi i32 [ %129, %124 ], [ %144, %130 ]
  %147 = load ptr, ptr %9, align 8, !tbaa !85
  store i32 %146, ptr %147, align 4, !tbaa !9
  %148 = load i32, ptr %10, align 4, !tbaa !9
  store i32 %148, ptr %5, align 4
  store i32 1, ptr %11, align 4
  br label %149

149:                                              ; preds = %145, %80, %57, %45, %24
  call void @llvm.lifetime.end.p0(i64 4, ptr %10) #11
  %150 = load i32, ptr %5, align 4
  ret i32 %150
}