; Function Attrs: nounwind uwtable
define dso_local i32 @lua_resume(ptr noundef %0, ptr noundef readonly captures(address_is_null) %1, i32 noundef %2, ptr noundef writeonly captures(none) %3) local_unnamed_addr #0 {
  %5 = alloca i32, align 4
  store i32 %2, ptr %5, align 4, !tbaa !74
  %6 = getelementptr inbounds nuw i8, ptr %0, i64 10
  %7 = load i8, ptr %6, align 2, !tbaa !35
  switch i8 %7, label %44 [
    i8 0, label %8
    i8 1, label %57
  ]

8:                                                ; preds = %4
  %9 = getelementptr inbounds nuw i8, ptr %0, i64 32
  %10 = load ptr, ptr %9, align 8, !tbaa !46
  %11 = getelementptr inbounds nuw i8, ptr %0, i64 96
  %.not35 = icmp eq ptr %10, %11
  %12 = getelementptr inbounds nuw i8, ptr %0, i64 16
  %13 = load ptr, ptr %12, align 8, !tbaa !27
  br i1 %.not35, label %25, label %14

14:                                               ; preds = %8
  %15 = sext i32 %2 to i64
  %16 = sub nsw i64 0, %15
  %17 = getelementptr inbounds %union.StackValue, ptr %13, i64 %16
  store ptr %17, ptr %12, align 8, !tbaa !27
  %18 = tail call ptr @luaS_new(ptr noundef nonnull %0, ptr noundef nonnull @.str.2) #13
  store ptr %18, ptr %17, align 8, !tbaa !27
  %19 = getelementptr inbounds nuw i8, ptr %18, i64 8
  %20 = load i8, ptr %19, align 8, !tbaa !28
  %21 = or i8 %20, 64
  %22 = getelementptr inbounds nuw i8, ptr %17, i64 8
  store i8 %21, ptr %22, align 8, !tbaa !31
  %23 = load ptr, ptr %12, align 8, !tbaa !27
  %24 = getelementptr inbounds nuw i8, ptr %23, i64 16
  store ptr %24, ptr %12, align 8, !tbaa !27
  br label %123

25:                                               ; preds = %8
  %26 = load ptr, ptr %10, align 8, !tbaa !27
  %27 = getelementptr inbounds nuw i8, ptr %26, i64 16
  %28 = ptrtoint ptr %13 to i64
  %29 = ptrtoint ptr %27 to i64
  %30 = sub i64 %28, %29
  %31 = ashr exact i64 %30, 4
  %32 = sext i32 %2 to i64
  %33 = icmp eq i64 %31, %32
  br i1 %33, label %34, label %57

34:                                               ; preds = %25
  %35 = sub nsw i64 0, %32
  %36 = getelementptr inbounds %union.StackValue, ptr %13, i64 %35
  store ptr %36, ptr %12, align 8, !tbaa !27
  %37 = tail call ptr @luaS_new(ptr noundef nonnull %0, ptr noundef nonnull @.str.3) #13
  store ptr %37, ptr %36, align 8, !tbaa !27
  %38 = getelementptr inbounds nuw i8, ptr %37, i64 8
  %39 = load i8, ptr %38, align 8, !tbaa !28
  %40 = or i8 %39, 64
  %41 = getelementptr inbounds nuw i8, ptr %36, i64 8
  store i8 %40, ptr %41, align 8, !tbaa !31
  %42 = load ptr, ptr %12, align 8, !tbaa !27
  %43 = getelementptr inbounds nuw i8, ptr %42, i64 16
  store ptr %43, ptr %12, align 8, !tbaa !27
  br label %123

44:                                               ; preds = %4
  %45 = getelementptr inbounds nuw i8, ptr %0, i64 16
  %46 = load ptr, ptr %45, align 8, !tbaa !27
  %47 = sext i32 %2 to i64
  %48 = sub nsw i64 0, %47
  %49 = getelementptr inbounds %union.StackValue, ptr %46, i64 %48
  store ptr %49, ptr %45, align 8, !tbaa !27
  %50 = tail call ptr @luaS_new(ptr noundef nonnull %0, ptr noundef nonnull @.str.3) #13
  store ptr %50, ptr %49, align 8, !tbaa !27
  %51 = getelementptr inbounds nuw i8, ptr %50, i64 8
  %52 = load i8, ptr %51, align 8, !tbaa !28
  %53 = or i8 %52, 64
  %54 = getelementptr inbounds nuw i8, ptr %49, i64 8
  store i8 %53, ptr %54, align 8, !tbaa !31
  %55 = load ptr, ptr %45, align 8, !tbaa !27
  %56 = getelementptr inbounds nuw i8, ptr %55, i64 16
  store ptr %56, ptr %45, align 8, !tbaa !27
  br label %123

57:                                               ; preds = %4, %25
  %.not36 = icmp eq ptr %1, null
  br i1 %.not36, label %.thread, label %59

.thread:                                          ; preds = %57
  %58 = getelementptr inbounds nuw i8, ptr %0, i64 176
  br label %78

59:                                               ; preds = %57
  %60 = getelementptr inbounds nuw i8, ptr %1, i64 176
  %61 = load i32, ptr %60, align 8, !tbaa !38
  %62 = and i32 %61, 65535
  %63 = getelementptr inbounds nuw i8, ptr %0, i64 176
  store i32 %62, ptr %63, align 8, !tbaa !38
  %64 = icmp samesign ugt i32 %62, 199
  br i1 %64, label %65, label %78

65:                                               ; preds = %59
  %66 = getelementptr inbounds nuw i8, ptr %0, i64 16
  %67 = load ptr, ptr %66, align 8, !tbaa !27
  %68 = sext i32 %2 to i64
  %69 = sub nsw i64 0, %68
  %70 = getelementptr inbounds %union.StackValue, ptr %67, i64 %69
  store ptr %70, ptr %66, align 8, !tbaa !27
  %71 = tail call ptr @luaS_new(ptr noundef nonnull %0, ptr noundef nonnull @.str.4) #13
  store ptr %71, ptr %70, align 8, !tbaa !27
  %72 = getelementptr inbounds nuw i8, ptr %71, i64 8
  %73 = load i8, ptr %72, align 8, !tbaa !28
  %74 = or i8 %73, 64
  %75 = getelementptr inbounds nuw i8, ptr %70, i64 8
  store i8 %74, ptr %75, align 8, !tbaa !31
  %76 = load ptr, ptr %66, align 8, !tbaa !27
  %77 = getelementptr inbounds nuw i8, ptr %76, i64 16
  store ptr %77, ptr %66, align 8, !tbaa !27
  br label %123

78:                                               ; preds = %.thread, %59
  %79 = phi ptr [ %58, %.thread ], [ %63, %59 ]
  %80 = phi i32 [ 0, %.thread ], [ %62, %59 ]
  %81 = add nuw nsw i32 %80, 1
  store i32 %81, ptr %79, align 8, !tbaa !38
  %82 = call i32 @luaD_rawrunprotected(ptr noundef nonnull %0, ptr noundef nonnull @resume, ptr noundef nonnull %5)
  %83 = icmp sgt i32 %82, 1
  br i1 %83, label %.lr.ph.i, label %precover.exit.thread

.lr.ph.i:                                         ; preds = %78
  %84 = getelementptr inbounds nuw i8, ptr %0, i64 32
  br label %85

85:                                               ; preds = %findpcall.exit.i, %.lr.ph.i
  %.015.i = phi i32 [ %82, %.lr.ph.i ], [ %95, %findpcall.exit.i ]
  %.08.i.i = load ptr, ptr %84, align 8, !tbaa !41
  %.not9.i.i = icmp eq ptr %.08.i.i, null
  br i1 %.not9.i.i, label %.thread42, label %.lr.ph.i.i

.lr.ph.i.i:                                       ; preds = %85, %89
  %.010.i.i = phi ptr [ %.0.i.i, %89 ], [ %.08.i.i, %85 ]
  %86 = getelementptr inbounds nuw i8, ptr %.010.i.i, i64 60
  %87 = load i32, ptr %86, align 4, !tbaa !43
  %88 = and i32 %87, 2097152
  %.not7.i.i = icmp eq i32 %88, 0
  br i1 %.not7.i.i, label %89, label %findpcall.exit.i

89:                                               ; preds = %.lr.ph.i.i
  %90 = getelementptr inbounds nuw i8, ptr %.010.i.i, i64 16
  %.0.i.i = load ptr, ptr %90, align 8, !tbaa !41
  %.not.i.i = icmp eq ptr %.0.i.i, null
  br i1 %.not.i.i, label %precover.exit, label %.lr.ph.i.i

findpcall.exit.i:                                 ; preds = %.lr.ph.i.i
  %91 = getelementptr inbounds nuw i8, ptr %.010.i.i, i64 60
  store ptr %.010.i.i, ptr %84, align 8, !tbaa !46
  %92 = and i32 %87, -28673
  %93 = shl i32 %.015.i, 12
  %94 = or i32 %92, %93
  store i32 %94, ptr %91, align 4, !tbaa !43
  %95 = call i32 @luaD_rawrunprotected(ptr noundef nonnull %0, ptr noundef nonnull @unroll, ptr noundef null)
  %96 = icmp sgt i32 %95, 1
  br i1 %96, label %85, label %precover.exit.thread

precover.exit:                                    ; preds = %89
  %97 = icmp slt i32 %.015.i, 2
  br i1 %97, label %precover.exit.thread, label %.thread42, !prof !75

.thread42:                                        ; preds = %85, %precover.exit
  %98 = trunc i32 %.015.i to i8
  store i8 %98, ptr %6, align 2, !tbaa !35
  %99 = getelementptr inbounds nuw i8, ptr %0, i64 16
  %100 = load ptr, ptr %99, align 8, !tbaa !27
  call void @luaD_seterrorobj(ptr noundef nonnull %0, i32 noundef %.015.i, ptr noundef %100)
  %101 = load ptr, ptr %99, align 8, !tbaa !27
  %102 = load ptr, ptr %84, align 8, !tbaa !46
  %103 = getelementptr inbounds nuw i8, ptr %102, i64 8
  store ptr %101, ptr %103, align 8, !tbaa !27
  br label %110

precover.exit.thread:                             ; preds = %findpcall.exit.i, %78, %precover.exit
  %.014.i38 = phi i32 [ %.015.i, %precover.exit ], [ %82, %78 ], [ %95, %findpcall.exit.i ]
  %104 = icmp eq i32 %.014.i38, 1
  br i1 %104, label %105, label %precover.exit.thread._crit_edge

precover.exit.thread._crit_edge:                  ; preds = %precover.exit.thread
  %.phi.trans.insert = getelementptr inbounds nuw i8, ptr %0, i64 16
  %.pre = load ptr, ptr %.phi.trans.insert, align 8, !tbaa !27
  br label %110

105:                                              ; preds = %precover.exit.thread
  %106 = getelementptr inbounds nuw i8, ptr %0, i64 32
  %107 = load ptr, ptr %106, align 8, !tbaa !46
  %108 = getelementptr inbounds nuw i8, ptr %107, i64 56
  %109 = load i32, ptr %108, align 8, !tbaa !27
  br label %121

110:                                              ; preds = %precover.exit.thread._crit_edge, %.thread42
  %111 = phi ptr [ %101, %.thread42 ], [ %.pre, %precover.exit.thread._crit_edge ]
  %.014.i3845 = phi i32 [ %.015.i, %.thread42 ], [ %.014.i38, %precover.exit.thread._crit_edge ]
  %112 = getelementptr inbounds nuw i8, ptr %0, i64 32
  %113 = load ptr, ptr %112, align 8, !tbaa !46
  %114 = load ptr, ptr %113, align 8, !tbaa !27
  %115 = getelementptr inbounds nuw i8, ptr %114, i64 16
  %116 = ptrtoint ptr %111 to i64
  %117 = ptrtoint ptr %115 to i64
  %118 = sub i64 %116, %117
  %119 = lshr exact i64 %118, 4
  %120 = trunc i64 %119 to i32
  br label %121

121:                                              ; preds = %110, %105
  %.014.i3844 = phi i32 [ 1, %105 ], [ %.014.i3845, %110 ]
  %122 = phi i32 [ %109, %105 ], [ %120, %110 ]
  store i32 %122, ptr %3, align 4, !tbaa !74
  br label %123

123:                                              ; preds = %121, %65, %44, %34, %14
  %.0 = phi i32 [ 2, %14 ], [ 2, %34 ], [ 2, %65 ], [ %.014.i3844, %121 ], [ 2, %44 ]
  ret i32 %.0
}